; Function Attrs: mustprogress uwtable
define hidden void @_ZN4cvc58internal5proof18AlfPrintChannelOut21printTypeNodeInternalERSoNS0_8TypeNodeE(ptr nocapture noundef nonnull readnone align 8 dereferenceable(112) %this, ptr noundef nonnull align 8 dereferenceable(8) %out, ptr nocapture noundef readonly %tn) local_unnamed_addr #3 align 2 personality ptr @__gxx_personality_v0 {
entry:
  %scope.i = alloca %"class.cvc5::internal::options::ioutils::Scope", align 8
  %vtable = load ptr, ptr %out, align 8
  %vbase.offset.ptr = getelementptr i8, ptr %vtable, i64 -24
  %vbase.offset = load i64, ptr %vbase.offset.ptr, align 8
  %add.ptr = getelementptr inbounds i8, ptr %out, i64 %vbase.offset
  tail call void @_ZN4cvc58internal7options7ioutils19applyOutputLanguageERSt8ios_baseNS0_8LanguageE(ptr noundef nonnull align 8 dereferenceable(216) %add.ptr, i32 noundef 0)
  call void @llvm.lifetime.start.p0(i64 48, ptr nonnull %scope.i)
  %vtable.i = load ptr, ptr %out, align 8
  %vbase.offset.ptr.i = getelementptr i8, ptr %vtable.i, i64 -24
  %vbase.offset.i = load i64, ptr %vbase.offset.ptr.i, align 8
  %add.ptr.i = getelementptr inbounds i8, ptr %out, i64 %vbase.offset.i
  call void @_ZN4cvc58internal7options7ioutils5ScopeC1ERSt8ios_base(ptr noundef nonnull align 8 dereferenceable(44) %scope.i, ptr noundef nonnull align 8 dereferenceable(216) %add.ptr.i)
  %vtable2.i = load ptr, ptr %out, align 8
  %vbase.offset.ptr3.i = getelementptr i8, ptr %vtable2.i, i64 -24
  %vbase.offset4.i = load i64, ptr %vbase.offset.ptr3.i, align 8
  %add.ptr5.i = getelementptr inbounds i8, ptr %out, i64 %vbase.offset4.i
  invoke void @_ZN4cvc58internal7options7ioutils14applyDagThreshERSt8ios_basel(ptr noundef nonnull align 8 dereferenceable(216) %add.ptr5.i, i64 noundef 0)
          to label %invoke.cont.i unwind label %lpad.i

invoke.cont.i:                                    ; preds = %entry
  %0 = load ptr, ptr %tn, align 8
  invoke void @_ZNK4cvc58internal4expr9NodeValue8toStreamERSo(ptr noundef nonnull align 8 dereferenceable(16) %0, ptr noundef nonnull align 8 dereferenceable(8) %out)
          to label %_ZNK4cvc58internal8TypeNode8toStreamERSo.exit unwind label %lpad.i

lpad.i:                                           ; preds = %invoke.cont.i, %entry
  %1 = landingpad { ptr, i32 }
          cleanup
  call void @_ZN4cvc58internal7options7ioutils5ScopeD1Ev(ptr noundef nonnull align 8 dereferenceable(44) %scope.i) #15
  resume { ptr, i32 } %1

_ZNK4cvc58internal8TypeNode8toStreamERSo.exit:    ; preds = %invoke.cont.i
  call void @_ZN4cvc58internal7options7ioutils5ScopeD1Ev(ptr noundef nonnull align 8 dereferenceable(44) %scope.i) #15
  call void @llvm.lifetime.end.p0(i64 48, ptr nonnull %scope.i)
  ret void
}